target datalayout = "e-m:e-p270:32:32-p271:32:32-p272:64:64-i64:64-i128:128-f80:128-n8:16:32:64-S128"
target triple = "x86_64-pc-linux-gnu"

%struct.object_id = type { [32 x i8], i32 }
%struct.oid_array = type { ptr, i64, i64, i32 }
%struct.shallow_info = type { ptr, ptr, i64, ptr, i64, ptr, ptr, ptr, ptr, ptr, ptr, i64 }
%struct.commit_array = type { ptr, i64, i64 }

@.str = private unnamed_addr constant [10 x i8] c"shallow.c\00", align 1
@the_repository = external global ptr, align 8

; Function Attrs: nounwind uwtable
define dso_local i32 @delayed_reachability_test(ptr noundef %0, i32 noundef %1) #0 {
  %3 = alloca ptr, align 8
  %4 = alloca i32, align 4
  %5 = alloca ptr, align 8
  %6 = alloca %struct.commit_array, align 8
  store ptr %0, ptr %3, align 8, !tbaa !129
  store i32 %1, ptr %4, align 4, !tbaa !11
  %7 = load ptr, ptr %3, align 8, !tbaa !129
  %8 = getelementptr inbounds nuw %struct.shallow_info, ptr %7, i32 0, i32 7
  %9 = load ptr, ptr %8, align 8, !tbaa !146
  %10 = load i32, ptr %4, align 4, !tbaa !11
  %11 = sext i32 %10 to i64
  %12 = getelementptr inbounds i32, ptr %9, i64 %11
  %13 = load i32, ptr %12, align 4, !tbaa !11
  %14 = icmp ne i32 %13, 0
  br i1 %14, label %15, label %79

15:                                               ; preds = %2
  call void @llvm.lifetime.start.p0(i64 8, ptr %5) #12
  %16 = load ptr, ptr @the_repository, align 8, !tbaa !4
  %17 = load ptr, ptr %3, align 8, !tbaa !129
  %18 = getelementptr inbounds nuw %struct.shallow_info, ptr %17, i32 0, i32 0
  %19 = load ptr, ptr %18, align 8, !tbaa !131
  %20 = getelementptr inbounds nuw %struct.oid_array, ptr %19, i32 0, i32 0
  %21 = load ptr, ptr %20, align 8, !tbaa !116
  %22 = load i32, ptr %4, align 4, !tbaa !11
  %23 = sext i32 %22 to i64
  %24 = getelementptr inbounds %struct.object_id, ptr %21, i64 %23
  %25 = call ptr @lookup_commit(ptr noundef %16, ptr noundef %24)
  store ptr %25, ptr %5, align 8, !tbaa !44
  %26 = load ptr, ptr %3, align 8, !tbaa !129
  %27 = getelementptr inbounds nuw %struct.shallow_info, ptr %26, i32 0, i32 10
  %28 = load ptr, ptr %27, align 8, !tbaa !182
  %29 = icmp ne ptr %28, null
  br i1 %29, label %45, label %30

30:                                               ; preds = %15
  call void @llvm.lifetime.start.p0(i64 24, ptr %6) #12
  call void @llvm.memset.p0.i64(ptr align 8 %6, i8 0, i64 24, i1 false)
  %31 = load ptr, ptr @the_repository, align 8, !tbaa !4
  %32 = call ptr @get_main_ref_store(ptr noundef %31)
  %33 = call i32 @refs_head_ref(ptr noundef %32, ptr noundef @add_ref, ptr noundef %6)
  %34 = load ptr, ptr @the_repository, align 8, !tbaa !4
  %35 = call ptr @get_main_ref_store(ptr noundef %34)
  %36 = call i32 @refs_for_each_ref(ptr noundef %35, ptr noundef @add_ref, ptr noundef %6)
  %37 = getelementptr inbounds nuw %struct.commit_array, ptr %6, i32 0, i32 0
  %38 = load ptr, ptr %37, align 8, !tbaa !176
  %39 = load ptr, ptr %3, align 8, !tbaa !129
  %40 = getelementptr inbounds nuw %struct.shallow_info, ptr %39, i32 0, i32 10
  store ptr %38, ptr %40, align 8, !tbaa !182
  %41 = getelementptr inbounds nuw %struct.commit_array, ptr %6, i32 0, i32 1
  %42 = load i64, ptr %41, align 8, !tbaa !174
  %43 = load ptr, ptr %3, align 8, !tbaa !129
  %44 = getelementptr inbounds nuw %struct.shallow_info, ptr %43, i32 0, i32 11
  store i64 %42, ptr %44, align 8, !tbaa !183
  call void @llvm.lifetime.end.p0(i64 24, ptr %6) #12
  br label %45

45:                                               ; preds = %30, %15
  %46 = load ptr, ptr @the_repository, align 8, !tbaa !4
  %47 = load ptr, ptr %5, align 8, !tbaa !44
  %48 = load ptr, ptr %3, align 8, !tbaa !129
  %49 = getelementptr inbounds nuw %struct.shallow_info, ptr %48, i32 0, i32 11
  %50 = load i64, ptr %49, align 8, !tbaa !183
  %51 = trunc i64 %50 to i32
  %52 = load ptr, ptr %3, align 8, !tbaa !129
  %53 = getelementptr inbounds nuw %struct.shallow_info, ptr %52, i32 0, i32 10
  %54 = load ptr, ptr %53, align 8, !tbaa !182
  %55 = call i32 @repo_in_merge_bases_many(ptr noundef %46, ptr noundef %47, i32 noundef %51, ptr noundef %54, i32 noundef 1)
  %56 = load ptr, ptr %3, align 8, !tbaa !129
  %57 = getelementptr inbounds nuw %struct.shallow_info, ptr %56, i32 0, i32 8
  %58 = load ptr, ptr %57, align 8, !tbaa !147
  %59 = load i32, ptr %4, align 4, !tbaa !11
  %60 = sext i32 %59 to i64
  %61 = getelementptr inbounds i32, ptr %58, i64 %60
  store i32 %55, ptr %61, align 4, !tbaa !11
  %62 = load ptr, ptr %3, align 8, !tbaa !129
  %63 = getelementptr inbounds nuw %struct.shallow_info, ptr %62, i32 0, i32 8
  %64 = load ptr, ptr %63, align 8, !tbaa !147
  %65 = load i32, ptr %4, align 4, !tbaa !11
  %66 = sext i32 %65 to i64
  %67 = getelementptr inbounds i32, ptr %64, i64 %66
  %68 = load i32, ptr %67, align 4, !tbaa !11
  %69 = icmp slt i32 %68, 0
  br i1 %69, label %70, label %72

70:                                               ; preds = %45
  %71 = call i32 @common_exit(ptr noundef @.str, i32 noundef 854, i32 noundef 128)
  call void @exit(i32 noundef %71) #14
  unreachable

72:                                               ; preds = %45
  %73 = load ptr, ptr %3, align 8, !tbaa !129
  %74 = getelementptr inbounds nuw %struct.shallow_info, ptr %73, i32 0, i32 7
  %75 = load ptr, ptr %74, align 8, !tbaa !146
  %76 = load i32, ptr %4, align 4, !tbaa !11
  %77 = sext i32 %76 to i64
  %78 = getelementptr inbounds i32, ptr %75, i64 %77
  store i32 0, ptr %78, align 4, !tbaa !11
  call void @llvm.lifetime.end.p0(i64 8, ptr %5) #12
  br label %79

79:                                               ; preds = %72, %2
  %80 = load ptr, ptr %3, align 8, !tbaa !129
  %81 = getelementptr inbounds nuw %struct.shallow_info, ptr %80, i32 0, i32 8
  %82 = load ptr, ptr %81, align 8, !tbaa !147
  %83 = load i32, ptr %4, align 4, !tbaa !11
  %84 = sext i32 %83 to i64
  %85 = getelementptr inbounds i32, ptr %82, i64 %84
  %86 = load i32, ptr %85, align 4, !tbaa !11
  ret i32 %86
}