; Function Attrs: nounwind uwtable
define dso_local i32 @delayed_reachability_test(ptr noundef captures(none) %0, i32 noundef %1) local_unnamed_addr #0 {
  %3 = alloca %struct.commit_array, align 8
  %4 = getelementptr inbounds nuw i8, ptr %0, i64 56
  %5 = load ptr, ptr %4, align 8, !tbaa !119
  %6 = sext i32 %1 to i64
  %7 = getelementptr inbounds i32, ptr %5, i64 %6
  %8 = load i32, ptr %7, align 4, !tbaa !39
  %.not = icmp eq i32 %8, 0
  br i1 %.not, label %._crit_edge18, label %9

._crit_edge18:                                    ; preds = %2
  %.phi.trans.insert19 = getelementptr inbounds nuw i8, ptr %0, i64 64
  %.pre20 = load ptr, ptr %.phi.trans.insert19, align 8, !tbaa !120
  br label %43

9:                                                ; preds = %2
  %10 = load ptr, ptr @the_repository, align 8, !tbaa !45
  %11 = load ptr, ptr %0, align 8, !tbaa !106
  %12 = load ptr, ptr %11, align 8, !tbaa !89
  %13 = getelementptr inbounds %struct.object_id, ptr %12, i64 %6
  %14 = tail call ptr @lookup_commit(ptr noundef %10, ptr noundef %13) #15
  %15 = getelementptr inbounds nuw i8, ptr %0, i64 80
  %16 = load ptr, ptr %15, align 8, !tbaa !144
  %.not17 = icmp eq ptr %16, null
  br i1 %.not17, label %17, label %._crit_edge

._crit_edge:                                      ; preds = %9
  %.phi.trans.insert = getelementptr inbounds nuw i8, ptr %0, i64 88
  %.pre = load i64, ptr %.phi.trans.insert, align 8, !tbaa !145
  br label %28

17:                                               ; preds = %9
  call void @llvm.lifetime.start.p0(i64 24, ptr nonnull %3) #15
  call void @llvm.memset.p0.i64(ptr noundef nonnull align 8 dereferenceable(24) %3, i8 0, i64 24, i1 false)
  %18 = load ptr, ptr @the_repository, align 8, !tbaa !45
  %19 = tail call ptr @get_main_ref_store(ptr noundef %18) #15
  %20 = call i32 @refs_head_ref(ptr noundef %19, ptr noundef nonnull @add_ref, ptr noundef nonnull %3) #15
  %21 = load ptr, ptr @the_repository, align 8, !tbaa !45
  %22 = call ptr @get_main_ref_store(ptr noundef %21) #15
  %23 = call i32 @refs_for_each_ref(ptr noundef %22, ptr noundef nonnull @add_ref, ptr noundef nonnull %3) #15
  %24 = load ptr, ptr %3, align 8, !tbaa !139
  store ptr %24, ptr %15, align 8, !tbaa !144
  %25 = getelementptr inbounds nuw i8, ptr %3, i64 8
  %26 = load i64, ptr %25, align 8, !tbaa !137
  %27 = getelementptr inbounds nuw i8, ptr %0, i64 88
  store i64 %26, ptr %27, align 8, !tbaa !145
  call void @llvm.lifetime.end.p0(i64 24, ptr nonnull %3) #15
  br label %28

28:                                               ; preds = %._crit_edge, %17
  %29 = phi ptr [ %16, %._crit_edge ], [ %24, %17 ]
  %30 = phi i64 [ %.pre, %._crit_edge ], [ %26, %17 ]
  %31 = load ptr, ptr @the_repository, align 8, !tbaa !45
  %32 = trunc i64 %30 to i32
  %33 = call i32 @repo_in_merge_bases_many(ptr noundef %31, ptr noundef %14, i32 noundef %32, ptr noundef %29, i32 noundef 1) #15
  %34 = getelementptr inbounds nuw i8, ptr %0, i64 64
  %35 = load ptr, ptr %34, align 8, !tbaa !120
  %36 = getelementptr inbounds i32, ptr %35, i64 %6
  store i32 %33, ptr %36, align 4, !tbaa !39
  %37 = icmp slt i32 %33, 0
  br i1 %37, label %38, label %40

38:                                               ; preds = %28
  %39 = call i32 @common_exit(ptr noundef nonnull @.str, i32 noundef 854, i32 noundef 128) #15
  call void @exit(i32 noundef %39) #14
  unreachable

40:                                               ; preds = %28
  %41 = load ptr, ptr %4, align 8, !tbaa !119
  %42 = getelementptr inbounds i32, ptr %41, i64 %6
  store i32 0, ptr %42, align 4, !tbaa !39
  br label %43

43:                                               ; preds = %._crit_edge18, %40
  %44 = phi ptr [ %.pre20, %._crit_edge18 ], [ %35, %40 ]
  %45 = getelementptr inbounds i32, ptr %44, i64 %6
  %46 = load i32, ptr %45, align 4, !tbaa !39
  ret i32 %46
}